target datalayout = "e-m:e-p270:32:32-p271:32:32-p272:64:64-i64:64-i128:128-f80:128-n8:16:32:64-S128"
target triple = "x86_64-pc-linux-gnu"

%struct.b2Vec2 = type { float, float }
%struct.b2Transform = type { %struct.b2Vec2, %struct.b2Rot }
%struct.b2Rot = type { float, float }
%struct.b2Filter = type { i64, i64, i32 }
%struct.b2Shape = type { i32, i32, i32, i32, i32, i32, float, float, float, float, float, i32, %struct.b2AABB, %struct.b2AABB, %struct.b2Vec2, i32, %struct.b2Filter, ptr, i32, %union.anon.0, i16, i8, i8, i8, i8 }
%struct.b2AABB = type { %struct.b2Vec2, %struct.b2Vec2 }
%union.anon.0 = type { %struct.b2Polygon }
%struct.b2Polygon = type { [8 x %struct.b2Vec2], [8 x %struct.b2Vec2], %struct.b2Vec2, float, i32 }
%struct.b2Segment = type { %struct.b2Vec2, %struct.b2Vec2 }
%struct.b2ChainSegment = type { %struct.b2Vec2, %struct.b2Segment, %struct.b2Vec2, i32 }
%struct.b2CastOutput = type { %struct.b2Vec2, %struct.b2Vec2, float, i32, i8 }
%struct.b2RayCastInput = type { %struct.b2Vec2, %struct.b2Vec2, float }

; Function Attrs: inlinehint nounwind uwtable
define internal <2 x float> @b2RotateVector(<2 x float> %0, <2 x float> %1) #5 {
  %3 = alloca %struct.b2Vec2, align 4
  %4 = alloca %struct.b2Rot, align 4
  %5 = alloca %struct.b2Vec2, align 4
  store <2 x float> %0, ptr %4, align 4
  store <2 x float> %1, ptr %5, align 4
  %6 = getelementptr inbounds nuw %struct.b2Vec2, ptr %3, i32 0, i32 0
  %7 = getelementptr inbounds nuw %struct.b2Rot, ptr %4, i32 0, i32 0
  %8 = load float, ptr %7, align 4, !tbaa !253
  %9 = getelementptr inbounds nuw %struct.b2Vec2, ptr %5, i32 0, i32 0
  %10 = load float, ptr %9, align 4, !tbaa !55
  %11 = fmul float %8, %10
  %12 = getelementptr inbounds nuw %struct.b2Rot, ptr %4, i32 0, i32 1
  %13 = load float, ptr %12, align 4, !tbaa !254
  %14 = getelementptr inbounds nuw %struct.b2Vec2, ptr %5, i32 0, i32 1
  %15 = load float, ptr %14, align 4, !tbaa !56
  %16 = fmul float %13, %15
  %17 = fsub float %11, %16
  store float %17, ptr %6, align 4, !tbaa !55
  %18 = getelementptr inbounds nuw %struct.b2Vec2, ptr %3, i32 0, i32 1
  %19 = getelementptr inbounds nuw %struct.b2Rot, ptr %4, i32 0, i32 1
  %20 = load float, ptr %19, align 4, !tbaa !254
  %21 = getelementptr inbounds nuw %struct.b2Vec2, ptr %5, i32 0, i32 0
  %22 = load float, ptr %21, align 4, !tbaa !55
  %23 = fmul float %20, %22
  %24 = getelementptr inbounds nuw %struct.b2Rot, ptr %4, i32 0, i32 0
  %25 = load float, ptr %24, align 4, !tbaa !253
  %26 = getelementptr inbounds nuw %struct.b2Vec2, ptr %5, i32 0, i32 1
  %27 = load float, ptr %26, align 4, !tbaa !56
  %28 = fmul float %25, %27
  %29 = fadd float %23, %28
  store float %29, ptr %18, align 4, !tbaa !56
  %30 = load <2 x float>, ptr %3, align 4
  ret <2 x float> %30
}

; Function Attrs: inlinehint nounwind uwtable
define internal <2 x float> @b2TransformPoint(<2 x float> %0, <2 x float> %1, <2 x float> %2) #5 {
  %4 = alloca %struct.b2Vec2, align 4
  %5 = alloca %struct.b2Transform, align 4
  %6 = alloca %struct.b2Vec2, align 4
  %7 = alloca float, align 4
  %8 = alloca float, align 4
  %9 = getelementptr inbounds nuw { <2 x float>, <2 x float> }, ptr %5, i32 0, i32 0
  store <2 x float> %0, ptr %9, align 4
  %10 = getelementptr inbounds nuw { <2 x float>, <2 x float> }, ptr %5, i32 0, i32 1
  store <2 x float> %1, ptr %10, align 4
  store <2 x float> %2, ptr %6, align 4
  call void @llvm.lifetime.start.p0(i64 4, ptr %7) #9
  %11 = getelementptr inbounds nuw %struct.b2Transform, ptr %5, i32 0, i32 1
  %12 = getelementptr inbounds nuw %struct.b2Rot, ptr %11, i32 0, i32 0
  %13 = load float, ptr %12, align 4, !tbaa !251
  %14 = getelementptr inbounds nuw %struct.b2Vec2, ptr %6, i32 0, i32 0
  %15 = load float, ptr %14, align 4, !tbaa !55
  %16 = fmul float %13, %15
  %17 = getelementptr inbounds nuw %struct.b2Transform, ptr %5, i32 0, i32 1
  %18 = getelementptr inbounds nuw %struct.b2Rot, ptr %17, i32 0, i32 1
  %19 = load float, ptr %18, align 4, !tbaa !252
  %20 = getelementptr inbounds nuw %struct.b2Vec2, ptr %6, i32 0, i32 1
  %21 = load float, ptr %20, align 4, !tbaa !56
  %22 = fmul float %19, %21
  %23 = fsub float %16, %22
  %24 = getelementptr inbounds nuw %struct.b2Transform, ptr %5, i32 0, i32 0
  %25 = getelementptr inbounds nuw %struct.b2Vec2, ptr %24, i32 0, i32 0
  %26 = load float, ptr %25, align 4, !tbaa !247
  %27 = fadd float %23, %26
  store float %27, ptr %7, align 4, !tbaa !50
  call void @llvm.lifetime.start.p0(i64 4, ptr %8) #9
  %28 = getelementptr inbounds nuw %struct.b2Transform, ptr %5, i32 0, i32 1
  %29 = getelementptr inbounds nuw %struct.b2Rot, ptr %28, i32 0, i32 1
  %30 = load float, ptr %29, align 4, !tbaa !252
  %31 = getelementptr inbounds nuw %struct.b2Vec2, ptr %6, i32 0, i32 0
  %32 = load float, ptr %31, align 4, !tbaa !55
  %33 = fmul float %30, %32
  %34 = getelementptr inbounds nuw %struct.b2Transform, ptr %5, i32 0, i32 1
  %35 = getelementptr inbounds nuw %struct.b2Rot, ptr %34, i32 0, i32 0
  %36 = load float, ptr %35, align 4, !tbaa !251
  %37 = getelementptr inbounds nuw %struct.b2Vec2, ptr %6, i32 0, i32 1
  %38 = load float, ptr %37, align 4, !tbaa !56
  %39 = fmul float %36, %38
  %40 = fadd float %33, %39
  %41 = getelementptr inbounds nuw %struct.b2Transform, ptr %5, i32 0, i32 0
  %42 = getelementptr inbounds nuw %struct.b2Vec2, ptr %41, i32 0, i32 1
  %43 = load float, ptr %42, align 4, !tbaa !250
  %44 = fadd float %40, %43
  store float %44, ptr %8, align 4, !tbaa !50
  %45 = getelementptr inbounds nuw %struct.b2Vec2, ptr %4, i32 0, i32 0
  %46 = load float, ptr %7, align 4, !tbaa !50
  store float %46, ptr %45, align 4, !tbaa !55
  %47 = getelementptr inbounds nuw %struct.b2Vec2, ptr %4, i32 0, i32 1
  %48 = load float, ptr %8, align 4, !tbaa !50
  store float %48, ptr %47, align 4, !tbaa !56
  call void @llvm.lifetime.end.p0(i64 4, ptr %8) #9
  call void @llvm.lifetime.end.p0(i64 4, ptr %7) #9
  %49 = load <2 x float>, ptr %4, align 4
  ret <2 x float> %49
}

; Function Attrs: inlinehint nounwind uwtable
define internal <2 x float> @b2InvRotateVector(<2 x float> %0, <2 x float> %1) #5 {
  %3 = alloca %struct.b2Vec2, align 4
  %4 = alloca %struct.b2Rot, align 4
  %5 = alloca %struct.b2Vec2, align 4
  store <2 x float> %0, ptr %4, align 4
  store <2 x float> %1, ptr %5, align 4
  %6 = getelementptr inbounds nuw %struct.b2Vec2, ptr %3, i32 0, i32 0
  %7 = getelementptr inbounds nuw %struct.b2Rot, ptr %4, i32 0, i32 0
  %8 = load float, ptr %7, align 4, !tbaa !253
  %9 = getelementptr inbounds nuw %struct.b2Vec2, ptr %5, i32 0, i32 0
  %10 = load float, ptr %9, align 4, !tbaa !55
  %11 = fmul float %8, %10
  %12 = getelementptr inbounds nuw %struct.b2Rot, ptr %4, i32 0, i32 1
  %13 = load float, ptr %12, align 4, !tbaa !254
  %14 = getelementptr inbounds nuw %struct.b2Vec2, ptr %5, i32 0, i32 1
  %15 = load float, ptr %14, align 4, !tbaa !56
  %16 = fmul float %13, %15
  %17 = fadd float %11, %16
  store float %17, ptr %6, align 4, !tbaa !55
  %18 = getelementptr inbounds nuw %struct.b2Vec2, ptr %3, i32 0, i32 1
  %19 = getelementptr inbounds nuw %struct.b2Rot, ptr %4, i32 0, i32 1
  %20 = load float, ptr %19, align 4, !tbaa !254
  %21 = fneg float %20
  %22 = getelementptr inbounds nuw %struct.b2Vec2, ptr %5, i32 0, i32 0
  %23 = load float, ptr %22, align 4, !tbaa !55
  %24 = fmul float %21, %23
  %25 = getelementptr inbounds nuw %struct.b2Rot, ptr %4, i32 0, i32 0
  %26 = load float, ptr %25, align 4, !tbaa !253
  %27 = getelementptr inbounds nuw %struct.b2Vec2, ptr %5, i32 0, i32 1
  %28 = load float, ptr %27, align 4, !tbaa !56
  %29 = fmul float %26, %28
  %30 = fadd float %24, %29
  store float %30, ptr %18, align 4, !tbaa !56
  %31 = load <2 x float>, ptr %3, align 4
  ret <2 x float> %31
}

; Function Attrs: inlinehint nounwind uwtable
define internal <2 x float> @b2InvTransformPoint(<2 x float> %0, <2 x float> %1, <2 x float> %2) #5 {
  %4 = alloca %struct.b2Vec2, align 4
  %5 = alloca %struct.b2Transform, align 4
  %6 = alloca %struct.b2Vec2, align 4
  %7 = alloca float, align 4
  %8 = alloca float, align 4
  %9 = getelementptr inbounds nuw { <2 x float>, <2 x float> }, ptr %5, i32 0, i32 0
  store <2 x float> %0, ptr %9, align 4
  %10 = getelementptr inbounds nuw { <2 x float>, <2 x float> }, ptr %5, i32 0, i32 1
  store <2 x float> %1, ptr %10, align 4
  store <2 x float> %2, ptr %6, align 4
  call void @llvm.lifetime.start.p0(i64 4, ptr %7) #9
  %11 = getelementptr inbounds nuw %struct.b2Vec2, ptr %6, i32 0, i32 0
  %12 = load float, ptr %11, align 4, !tbaa !55
  %13 = getelementptr inbounds nuw %struct.b2Transform, ptr %5, i32 0, i32 0
  %14 = getelementptr inbounds nuw %struct.b2Vec2, ptr %13, i32 0, i32 0
  %15 = load float, ptr %14, align 4, !tbaa !247
  %16 = fsub float %12, %15
  store float %16, ptr %7, align 4, !tbaa !50
  call void @llvm.lifetime.start.p0(i64 4, ptr %8) #9
  %17 = getelementptr inbounds nuw %struct.b2Vec2, ptr %6, i32 0, i32 1
  %18 = load float, ptr %17, align 4, !tbaa !56
  %19 = getelementptr inbounds nuw %struct.b2Transform, ptr %5, i32 0, i32 0
  %20 = getelementptr inbounds nuw %struct.b2Vec2, ptr %19, i32 0, i32 1
  %21 = load float, ptr %20, align 4, !tbaa !250
  %22 = fsub float %18, %21
  store float %22, ptr %8, align 4, !tbaa !50
  %23 = getelementptr inbounds nuw %struct.b2Vec2, ptr %4, i32 0, i32 0
  %24 = getelementptr inbounds nuw %struct.b2Transform, ptr %5, i32 0, i32 1
  %25 = getelementptr inbounds nuw %struct.b2Rot, ptr %24, i32 0, i32 0
  %26 = load float, ptr %25, align 4, !tbaa !251
  %27 = load float, ptr %7, align 4, !tbaa !50
  %28 = fmul float %26, %27
  %29 = getelementptr inbounds nuw %struct.b2Transform, ptr %5, i32 0, i32 1
  %30 = getelementptr inbounds nuw %struct.b2Rot, ptr %29, i32 0, i32 1
  %31 = load float, ptr %30, align 4, !tbaa !252
  %32 = load float, ptr %8, align 4, !tbaa !50
  %33 = fmul float %31, %32
  %34 = fadd float %28, %33
  store float %34, ptr %23, align 4, !tbaa !55
  %35 = getelementptr inbounds nuw %struct.b2Vec2, ptr %4, i32 0, i32 1
  %36 = getelementptr inbounds nuw %struct.b2Transform, ptr %5, i32 0, i32 1
  %37 = getelementptr inbounds nuw %struct.b2Rot, ptr %36, i32 0, i32 1
  %38 = load float, ptr %37, align 4, !tbaa !252
  %39 = fneg float %38
  %40 = load float, ptr %7, align 4, !tbaa !50
  %41 = fmul float %39, %40
  %42 = getelementptr inbounds nuw %struct.b2Transform, ptr %5, i32 0, i32 1
  %43 = getelementptr inbounds nuw %struct.b2Rot, ptr %42, i32 0, i32 0
  %44 = load float, ptr %43, align 4, !tbaa !251
  %45 = load float, ptr %8, align 4, !tbaa !50
  %46 = fmul float %44, %45
  %47 = fadd float %41, %46
  store float %47, ptr %35, align 4, !tbaa !56
  call void @llvm.lifetime.end.p0(i64 4, ptr %8) #9
  call void @llvm.lifetime.end.p0(i64 4, ptr %7) #9
  %48 = load <2 x float>, ptr %4, align 4
  ret <2 x float> %48
}

; Function Attrs: nounwind uwtable
define hidden void @b2RayCastShape(ptr dead_on_unwind noalias writable sret(%struct.b2CastOutput) align 4 %0, ptr noundef %1, ptr noundef %2, <2 x float> %3, <2 x float> %4) #3 {
  %6 = alloca %struct.b2Transform, align 4
  %7 = alloca ptr, align 8
  %8 = alloca ptr, align 8
  %9 = alloca %struct.b2RayCastInput, align 4
  %10 = alloca %struct.b2Vec2, align 4
  %11 = alloca %struct.b2Vec2, align 4
  %12 = alloca %struct.b2CastOutput, align 4
  %13 = alloca %struct.b2CastOutput, align 4
  %14 = alloca %struct.b2CastOutput, align 4
  %15 = alloca %struct.b2CastOutput, align 4
  %16 = alloca %struct.b2CastOutput, align 4
  %17 = alloca i32, align 4
  %18 = alloca %struct.b2Vec2, align 4
  %19 = alloca %struct.b2Vec2, align 4
  %20 = getelementptr inbounds nuw { <2 x float>, <2 x float> }, ptr %6, i32 0, i32 0
  store <2 x float> %3, ptr %20, align 4
  %21 = getelementptr inbounds nuw { <2 x float>, <2 x float> }, ptr %6, i32 0, i32 1
  store <2 x float> %4, ptr %21, align 4
  store ptr %1, ptr %7, align 8, !tbaa !244
  store ptr %2, ptr %8, align 8, !tbaa !34
  call void @llvm.lifetime.start.p0(i64 20, ptr %9) #9
  %22 = load ptr, ptr %7, align 8, !tbaa !244
  call void @llvm.memcpy.p0.p0.i64(ptr align 4 %9, ptr align 4 %22, i64 20, i1 false), !tbaa.struct !195
  %23 = getelementptr inbounds nuw %struct.b2RayCastInput, ptr %9, i32 0, i32 0
  call void @llvm.lifetime.start.p0(i64 8, ptr %10) #9
  %24 = load ptr, ptr %7, align 8, !tbaa !244
  %25 = getelementptr inbounds nuw %struct.b2RayCastInput, ptr %24, i32 0, i32 0
  %26 = getelementptr inbounds nuw { <2 x float>, <2 x float> }, ptr %6, i32 0, i32 0
  %27 = load <2 x float>, ptr %26, align 4
  %28 = getelementptr inbounds nuw { <2 x float>, <2 x float> }, ptr %6, i32 0, i32 1
  %29 = load <2 x float>, ptr %28, align 4
  %30 = load <2 x float>, ptr %25, align 4
  %31 = call <2 x float> @b2InvTransformPoint(<2 x float> %27, <2 x float> %29, <2 x float> %30)
  store <2 x float> %31, ptr %10, align 4
  call void @llvm.memcpy.p0.p0.i64(ptr align 4 %23, ptr align 4 %10, i64 8, i1 false), !tbaa.struct !173
  call void @llvm.lifetime.end.p0(i64 8, ptr %10) #9
  %32 = getelementptr inbounds nuw %struct.b2RayCastInput, ptr %9, i32 0, i32 1
  call void @llvm.lifetime.start.p0(i64 8, ptr %11) #9
  %33 = getelementptr inbounds nuw %struct.b2Transform, ptr %6, i32 0, i32 1
  %34 = load ptr, ptr %7, align 8, !tbaa !244
  %35 = getelementptr inbounds nuw %struct.b2RayCastInput, ptr %34, i32 0, i32 1
  %36 = load <2 x float>, ptr %33, align 4
  %37 = load <2 x float>, ptr %35, align 4
  %38 = call <2 x float> @b2InvRotateVector(<2 x float> %36, <2 x float> %37)
  store <2 x float> %38, ptr %11, align 4
  call void @llvm.memcpy.p0.p0.i64(ptr align 4 %32, ptr align 4 %11, i64 8, i1 false), !tbaa.struct !173
  call void @llvm.lifetime.end.p0(i64 8, ptr %11) #9
  call void @llvm.memset.p0.i64(ptr align 4 %0, i8 0, i64 28, i1 false)
  %39 = load ptr, ptr %8, align 8, !tbaa !34
  %40 = getelementptr inbounds nuw %struct.b2Shape, ptr %39, i32 0, i32 5
  %41 = load i32, ptr %40, align 4, !tbaa !201
  switch i32 %41, label %58 [
    i32 1, label %42
    i32 0, label %45
    i32 3, label %48
    i32 2, label %51
    i32 4, label %54
  ]

42:                                               ; preds = %5
  call void @llvm.lifetime.start.p0(i64 28, ptr %12) #9
  %43 = load ptr, ptr %8, align 8, !tbaa !34
  %44 = getelementptr inbounds nuw %struct.b2Shape, ptr %43, i32 0, i32 19
  call void @b2RayCastCapsule(ptr dead_on_unwind writable sret(%struct.b2CastOutput) align 4 %12, ptr noundef %9, ptr noundef %44)
  call void @llvm.memcpy.p0.p0.i64(ptr align 4 %0, ptr align 4 %12, i64 28, i1 false), !tbaa.struct !246
  call void @llvm.lifetime.end.p0(i64 28, ptr %12) #9
  br label %59

45:                                               ; preds = %5
  call void @llvm.lifetime.start.p0(i64 28, ptr %13) #9
  %46 = load ptr, ptr %8, align 8, !tbaa !34
  %47 = getelementptr inbounds nuw %struct.b2Shape, ptr %46, i32 0, i32 19
  call void @b2RayCastCircle(ptr dead_on_unwind writable sret(%struct.b2CastOutput) align 4 %13, ptr noundef %9, ptr noundef %47)
  call void @llvm.memcpy.p0.p0.i64(ptr align 4 %0, ptr align 4 %13, i64 28, i1 false), !tbaa.struct !246
  call void @llvm.lifetime.end.p0(i64 28, ptr %13) #9
  br label %59

48:                                               ; preds = %5
  call void @llvm.lifetime.start.p0(i64 28, ptr %14) #9
  %49 = load ptr, ptr %8, align 8, !tbaa !34
  %50 = getelementptr inbounds nuw %struct.b2Shape, ptr %49, i32 0, i32 19
  call void @b2RayCastPolygon(ptr dead_on_unwind writable sret(%struct.b2CastOutput) align 4 %14, ptr noundef %9, ptr noundef %50)
  call void @llvm.memcpy.p0.p0.i64(ptr align 4 %0, ptr align 4 %14, i64 28, i1 false), !tbaa.struct !246
  call void @llvm.lifetime.end.p0(i64 28, ptr %14) #9
  br label %59

51:                                               ; preds = %5
  call void @llvm.lifetime.start.p0(i64 28, ptr %15) #9
  %52 = load ptr, ptr %8, align 8, !tbaa !34
  %53 = getelementptr inbounds nuw %struct.b2Shape, ptr %52, i32 0, i32 19
  call void @b2RayCastSegment(ptr dead_on_unwind writable sret(%struct.b2CastOutput) align 4 %15, ptr noundef %9, ptr noundef %53, i1 noundef zeroext false)
  call void @llvm.memcpy.p0.p0.i64(ptr align 4 %0, ptr align 4 %15, i64 28, i1 false), !tbaa.struct !246
  call void @llvm.lifetime.end.p0(i64 28, ptr %15) #9
  br label %59

54:                                               ; preds = %5
  call void @llvm.lifetime.start.p0(i64 28, ptr %16) #9
  %55 = load ptr, ptr %8, align 8, !tbaa !34
  %56 = getelementptr inbounds nuw %struct.b2Shape, ptr %55, i32 0, i32 19
  %57 = getelementptr inbounds nuw %struct.b2ChainSegment, ptr %56, i32 0, i32 1
  call void @b2RayCastSegment(ptr dead_on_unwind writable sret(%struct.b2CastOutput) align 4 %16, ptr noundef %9, ptr noundef %57, i1 noundef zeroext true)
  call void @llvm.memcpy.p0.p0.i64(ptr align 4 %0, ptr align 4 %16, i64 28, i1 false), !tbaa.struct !246
  call void @llvm.lifetime.end.p0(i64 28, ptr %16) #9
  br label %59

58:                                               ; preds = %5
  store i32 1, ptr %17, align 4
  br label %74

59:                                               ; preds = %54, %51, %48, %45, %42
  %60 = getelementptr inbounds nuw %struct.b2CastOutput, ptr %0, i32 0, i32 1
  call void @llvm.lifetime.start.p0(i64 8, ptr %18) #9
  %61 = getelementptr inbounds nuw %struct.b2CastOutput, ptr %0, i32 0, i32 1
  %62 = getelementptr inbounds nuw { <2 x float>, <2 x float> }, ptr %6, i32 0, i32 0
  %63 = load <2 x float>, ptr %62, align 4
  %64 = getelementptr inbounds nuw { <2 x float>, <2 x float> }, ptr %6, i32 0, i32 1
  %65 = load <2 x float>, ptr %64, align 4
  %66 = load <2 x float>, ptr %61, align 4
  %67 = call <2 x float> @b2TransformPoint(<2 x float> %63, <2 x float> %65, <2 x float> %66)
  store <2 x float> %67, ptr %18, align 4
  call void @llvm.memcpy.p0.p0.i64(ptr align 4 %60, ptr align 4 %18, i64 8, i1 false), !tbaa.struct !173
  call void @llvm.lifetime.end.p0(i64 8, ptr %18) #9
  %68 = getelementptr inbounds nuw %struct.b2CastOutput, ptr %0, i32 0, i32 0
  call void @llvm.lifetime.start.p0(i64 8, ptr %19) #9
  %69 = getelementptr inbounds nuw %struct.b2Transform, ptr %6, i32 0, i32 1
  %70 = getelementptr inbounds nuw %struct.b2CastOutput, ptr %0, i32 0, i32 0
  %71 = load <2 x float>, ptr %69, align 4
  %72 = load <2 x float>, ptr %70, align 4
  %73 = call <2 x float> @b2RotateVector(<2 x float> %71, <2 x float> %72)
  store <2 x float> %73, ptr %19, align 4
  call void @llvm.memcpy.p0.p0.i64(ptr align 4 %68, ptr align 4 %19, i64 8, i1 false), !tbaa.struct !173
  call void @llvm.lifetime.end.p0(i64 8, ptr %19) #9
  store i32 1, ptr %17, align 4
  br label %74

74:                                               ; preds = %59, %58
  call void @llvm.lifetime.end.p0(i64 20, ptr %9) #9
  ret void
}