; Function Attrs: nounwind uwtable
define hidden void @b2RayCastShape(ptr dead_on_unwind noalias writable sret(%struct.b2CastOutput) align 4 captures(none) initializes((0, 28)) %0, ptr noundef readonly captures(none) %1, ptr noundef %2, <2 x float> %3, <2 x float> %4) local_unnamed_addr #3 {
  %6 = alloca %struct.b2RayCastInput, align 8
  call void @llvm.lifetime.start.p0(i64 20, ptr nonnull %6) #10
  call void @llvm.memcpy.p0.p0.i64(ptr noundef nonnull align 8 dereferenceable(20) %6, ptr noundef nonnull align 4 dereferenceable(20) %1, i64 20, i1 false), !tbaa.struct !165
  %7 = load <2 x float>, ptr %1, align 4
  %.sroa.04.0.vec.extract.i = extractelement <2 x float> %3, i64 0
  %8 = fsub <2 x float> %7, %3
  %9 = extractelement <2 x float> %8, i64 0
  %.sroa.04.4.vec.extract.i = extractelement <2 x float> %3, i64 1
  %10 = fsub <2 x float> %7, %3
  %11 = extractelement <2 x float> %10, i64 1
  %.sroa.3.8.vec.extract.i = extractelement <2 x float> %4, i64 0
  %12 = fmul <2 x float> %4, %8
  %13 = extractelement <2 x float> %12, i64 0
  %.sroa.3.12.vec.extract.i = extractelement <2 x float> %4, i64 1
  %14 = fmul float %.sroa.3.12.vec.extract.i, %11
  %15 = fadd float %13, %14
  %.sroa.09.0.vec.insert.i = insertelement <2 x float> poison, float %15, i64 0
  %16 = fmul float %.sroa.3.8.vec.extract.i, %11
  %17 = fmul float %.sroa.3.12.vec.extract.i, %9
  %18 = fsub float %16, %17
  %.sroa.09.4.vec.insert.i = insertelement <2 x float> %.sroa.09.0.vec.insert.i, float %18, i64 1
  store <2 x float> %.sroa.09.4.vec.insert.i, ptr %6, align 8
  %19 = getelementptr inbounds nuw i8, ptr %6, i64 8
  %20 = getelementptr inbounds nuw i8, ptr %1, i64 8
  %21 = load <2 x float>, ptr %20, align 4
  %.sroa.0.0.vec.extract.i17 = extractelement <2 x float> %21, i64 0
  %22 = fmul <2 x float> %4, %21
  %23 = extractelement <2 x float> %22, i64 0
  %.sroa.0.4.vec.extract.i18 = extractelement <2 x float> %21, i64 1
  %24 = fmul float %.sroa.3.12.vec.extract.i, %.sroa.0.4.vec.extract.i18
  %25 = fadd float %23, %24
  %.sroa.010.0.vec.insert.i = insertelement <2 x float> poison, float %25, i64 0
  %26 = fmul float %.sroa.3.8.vec.extract.i, %.sroa.0.4.vec.extract.i18
  %27 = fmul float %.sroa.3.12.vec.extract.i, %.sroa.0.0.vec.extract.i17
  %28 = fsub float %26, %27
  %.sroa.010.4.vec.insert.i = insertelement <2 x float> %.sroa.010.0.vec.insert.i, float %28, i64 1
  store <2 x float> %.sroa.010.4.vec.insert.i, ptr %19, align 8
  tail call void @llvm.memset.p0.i64(ptr noundef nonnull align 4 dereferenceable(28) %0, i8 0, i64 28, i1 false)
  %29 = getelementptr inbounds nuw i8, ptr %2, i64 20
  %30 = load i32, ptr %29, align 4, !tbaa !171
  switch i32 %30, label %61 [
    i32 1, label %31
    i32 0, label %33
    i32 3, label %35
    i32 2, label %37
    i32 4, label %39
  ]

31:                                               ; preds = %5
  %32 = getelementptr inbounds nuw i8, ptr %2, i64 132
  call void @b2RayCastCapsule(ptr dead_on_unwind nonnull writable sret(%struct.b2CastOutput) align 4 %0, ptr noundef nonnull %6, ptr noundef nonnull %32) #10
  br label %41

33:                                               ; preds = %5
  %34 = getelementptr inbounds nuw i8, ptr %2, i64 132
  call void @b2RayCastCircle(ptr dead_on_unwind nonnull writable sret(%struct.b2CastOutput) align 4 %0, ptr noundef nonnull %6, ptr noundef nonnull %34) #10
  br label %41

35:                                               ; preds = %5
  %36 = getelementptr inbounds nuw i8, ptr %2, i64 132
  call void @b2RayCastPolygon(ptr dead_on_unwind nonnull writable sret(%struct.b2CastOutput) align 4 %0, ptr noundef nonnull %6, ptr noundef nonnull %36) #10
  br label %41

37:                                               ; preds = %5
  %38 = getelementptr inbounds nuw i8, ptr %2, i64 132
  call void @b2RayCastSegment(ptr dead_on_unwind nonnull writable sret(%struct.b2CastOutput) align 4 %0, ptr noundef nonnull %6, ptr noundef nonnull %38, i1 noundef zeroext false) #10
  br label %41

39:                                               ; preds = %5
  %40 = getelementptr inbounds nuw i8, ptr %2, i64 140
  call void @b2RayCastSegment(ptr dead_on_unwind nonnull writable sret(%struct.b2CastOutput) align 4 %0, ptr noundef nonnull %6, ptr noundef nonnull %40, i1 noundef zeroext true) #10
  br label %41

41:                                               ; preds = %39, %37, %35, %33, %31
  %42 = getelementptr inbounds nuw i8, ptr %0, i64 8
  %43 = load <2 x float>, ptr %42, align 4
  %.sroa.0.0.vec.extract.i20 = extractelement <2 x float> %43, i64 0
  %44 = fmul <2 x float> %4, %43
  %45 = extractelement <2 x float> %44, i64 0
  %.sroa.0.4.vec.extract.i22 = extractelement <2 x float> %43, i64 1
  %46 = fmul float %.sroa.3.12.vec.extract.i, %.sroa.0.4.vec.extract.i22
  %47 = fsub float %45, %46
  %48 = fadd float %.sroa.04.0.vec.extract.i, %47
  %49 = fmul float %.sroa.3.12.vec.extract.i, %.sroa.0.0.vec.extract.i20
  %50 = fmul float %.sroa.3.8.vec.extract.i, %.sroa.0.4.vec.extract.i22
  %51 = fadd float %49, %50
  %52 = fadd float %.sroa.04.4.vec.extract.i, %51
  %.sroa.011.0.vec.insert.i = insertelement <2 x float> poison, float %48, i64 0
  %.sroa.011.4.vec.insert.i = insertelement <2 x float> %.sroa.011.0.vec.insert.i, float %52, i64 1
  store <2 x float> %.sroa.011.4.vec.insert.i, ptr %42, align 4
  %53 = load <2 x float>, ptr %0, align 4
  %.sroa.0.0.vec.extract.i24 = extractelement <2 x float> %53, i64 0
  %54 = fmul <2 x float> %4, %53
  %55 = extractelement <2 x float> %54, i64 0
  %.sroa.0.4.vec.extract.i26 = extractelement <2 x float> %53, i64 1
  %56 = fmul float %.sroa.3.12.vec.extract.i, %.sroa.0.4.vec.extract.i26
  %57 = fsub float %55, %56
  %.sroa.010.0.vec.insert.i27 = insertelement <2 x float> poison, float %57, i64 0
  %58 = fmul float %.sroa.3.12.vec.extract.i, %.sroa.0.0.vec.extract.i24
  %59 = fmul float %.sroa.3.8.vec.extract.i, %.sroa.0.4.vec.extract.i26
  %60 = fadd float %58, %59
  %.sroa.010.4.vec.insert.i28 = insertelement <2 x float> %.sroa.010.0.vec.insert.i27, float %60, i64 1
  store <2 x float> %.sroa.010.4.vec.insert.i28, ptr %0, align 4
  br label %61

61:                                               ; preds = %5, %41
  call void @llvm.lifetime.end.p0(i64 20, ptr nonnull %6) #10
  ret void
}